target datalayout = "e-m:e-p270:32:32-p271:32:32-p272:64:64-i64:64-i128:128-f80:128-n8:16:32:64-S128"
target triple = "x86_64-pc-linux-gnu"

%struct._packet_info = type { ptr, ptr, i32, i32, %struct.nstime_t, %struct.nstime_t, %struct.nstime_t, i8, ptr, ptr, ptr, ptr, %struct._address, %struct._address, %struct._address, %struct._address, %struct._address, %struct._address, i32, ptr, i8, [3 x i8], %struct.anon, i32, i32, i32, i32, ptr, i8, ptr, ptr, i16, i16, i32, i32, i16, i32, i32, ptr, ptr, ptr, i8, i8, i16, i16, i16, i32, i16, i16, ptr, ptr, ptr, ptr, ptr, i32, i32 }
%struct.nstime_t = type { i64, i32 }
%struct._address = type { i32, i32, ptr, ptr }
%struct.anon = type { i8, [3 x i8] }

@hf_giop_repoid = internal global i32 0, align 4
@hf_giop_typecode_name = internal global i32 0, align 4

; Function Attrs: null_pointer_is_valid sspstrong uwtable
define internal void @dissect_tk_alias_params(ptr noundef %0, ptr noundef %1, ptr noundef %2, ptr noundef %3, i1 noundef zeroext %4, i32 noundef %5, ptr noundef %6, ptr noundef %7) #0 {
  %9 = alloca ptr, align 8
  %10 = alloca ptr, align 8
  %11 = alloca ptr, align 8
  %12 = alloca ptr, align 8
  %13 = alloca i8, align 1
  %14 = alloca i32, align 4
  %15 = alloca ptr, align 8
  %16 = alloca ptr, align 8
  %17 = alloca i32, align 4
  %18 = alloca i8, align 1
  %19 = alloca ptr, align 8
  %20 = alloca ptr, align 8
  %21 = alloca ptr, align 8
  store ptr %0, ptr %9, align 8
  store ptr %1, ptr %10, align 8
  store ptr %2, ptr %11, align 8
  store ptr %3, ptr %12, align 8
  %22 = zext i1 %4 to i8
  store i8 %22, ptr %13, align 1
  store i32 %5, ptr %14, align 4
  store ptr %6, ptr %15, align 8
  store ptr %7, ptr %16, align 8
  call void @llvm.lifetime.start.p0(i64 4, ptr %17) #14
  call void @llvm.lifetime.start.p0(i64 1, ptr %18) #14
  %23 = load ptr, ptr %9, align 8
  %24 = load ptr, ptr %11, align 8
  %25 = load ptr, ptr %12, align 8
  %26 = load i8, ptr %13, align 1, !range !8, !noundef !9
  %27 = trunc i8 %26 to i1
  %28 = load i32, ptr %14, align 4
  %29 = call i32 @get_CDR_encap_info(ptr noundef %23, ptr noundef %24, ptr noundef %25, i1 noundef zeroext %27, i32 noundef %28, ptr noundef %18, ptr noundef %17)
  call void @llvm.lifetime.start.p0(i64 8, ptr %19) #14
  store ptr null, ptr %19, align 8
  %30 = load ptr, ptr %9, align 8
  %31 = load ptr, ptr %11, align 8
  %32 = load ptr, ptr %12, align 8
  %33 = load i8, ptr %18, align 1, !range !8, !noundef !9
  %34 = trunc i8 %33 to i1
  %35 = load i32, ptr %17, align 4
  %36 = load i32, ptr @hf_giop_repoid, align 4
  call void @dissect_typecode_string_param(ptr noundef %30, ptr noundef %31, ptr noundef %32, i1 noundef zeroext %34, i32 noundef %35, i32 noundef %36, ptr noundef %19)
  %37 = load ptr, ptr %16, align 8
  %38 = load ptr, ptr %19, align 8
  call void @wmem_list_append(ptr noundef %37, ptr noundef %38)
  %39 = load ptr, ptr %9, align 8
  %40 = load ptr, ptr %11, align 8
  %41 = load ptr, ptr %12, align 8
  %42 = load i8, ptr %18, align 1, !range !8, !noundef !9
  %43 = trunc i8 %42 to i1
  %44 = load i32, ptr %17, align 4
  %45 = load i32, ptr @hf_giop_typecode_name, align 4
  call void @dissect_typecode_string_param(ptr noundef %39, ptr noundef %40, ptr noundef %41, i1 noundef zeroext %43, i32 noundef %44, i32 noundef %45, ptr noundef %19)
  %46 = load ptr, ptr %16, align 8
  %47 = load ptr, ptr %19, align 8
  call void @wmem_list_append(ptr noundef %46, ptr noundef %47)
  call void @llvm.lifetime.start.p0(i64 8, ptr %20) #14
  %48 = load ptr, ptr %10, align 8
  %49 = getelementptr inbounds nuw %struct._packet_info, ptr %48, i32 0, i32 51
  %50 = load ptr, ptr %49, align 8
  %51 = call noalias ptr @wmem_alloc(ptr noundef %50, i64 noundef 4) #15
  store ptr %51, ptr %20, align 8
  call void @llvm.lifetime.start.p0(i64 8, ptr %21) #14
  %52 = load ptr, ptr %10, align 8
  %53 = getelementptr inbounds nuw %struct._packet_info, ptr %52, i32 0, i32 51
  %54 = load ptr, ptr %53, align 8
  %55 = call noalias ptr @wmem_list_new(ptr noundef %54)
  store ptr %55, ptr %21, align 8
  %56 = load ptr, ptr %9, align 8
  %57 = load ptr, ptr %10, align 8
  %58 = load ptr, ptr %11, align 8
  %59 = load ptr, ptr %12, align 8
  %60 = load i8, ptr %18, align 1, !range !8, !noundef !9
  %61 = trunc i8 %60 to i1
  %62 = load i32, ptr %17, align 4
  %63 = load ptr, ptr %15, align 8
  %64 = load ptr, ptr %21, align 8
  %65 = call i32 @get_CDR_typeCode_with_params(ptr noundef %56, ptr noundef %57, ptr noundef %58, ptr noundef %59, i1 noundef zeroext %61, i32 noundef %62, ptr noundef %63, ptr noundef %64)
  %66 = load ptr, ptr %20, align 8
  store i32 %65, ptr %66, align 4
  %67 = load ptr, ptr %16, align 8
  %68 = load ptr, ptr %20, align 8
  call void @wmem_list_append(ptr noundef %67, ptr noundef %68)
  %69 = load ptr, ptr %16, align 8
  %70 = load ptr, ptr %21, align 8
  call void @wmem_list_append(ptr noundef %69, ptr noundef %70)
  call void @llvm.lifetime.end.p0(i64 8, ptr %21) #14
  call void @llvm.lifetime.end.p0(i64 8, ptr %20) #14
  call void @llvm.lifetime.end.p0(i64 8, ptr %19) #14
  call void @llvm.lifetime.end.p0(i64 1, ptr %18) #14
  call void @llvm.lifetime.end.p0(i64 4, ptr %17) #14
  ret void
}