; Function Attrs: null_pointer_is_valid sspstrong uwtable
define internal fastcc void @dissect_tk_alias_params(ptr noundef %0, ptr noundef %1, ptr noundef %2, ptr noundef captures(none) %3, i1 noundef zeroext %4, i32 noundef %5, ptr noundef readonly captures(none) %6, ptr noundef %7) unnamed_addr #0 {
  %9 = alloca i32, align 4
  %10 = alloca i8, align 1
  %11 = alloca ptr, align 8
  call void @llvm.lifetime.start.p0(i64 4, ptr nonnull %9) #17
  call void @llvm.lifetime.start.p0(i64 1, ptr nonnull %10) #17
  %12 = call i32 @get_CDR_encap_info(ptr noundef %0, ptr noundef %2, ptr noundef %3, i1 noundef zeroext %4, i32 noundef %5, ptr noundef nonnull %10, ptr noundef nonnull %9)
  call void @llvm.lifetime.start.p0(i64 8, ptr nonnull %11) #17
  %13 = load i8, ptr %10, align 1, !range !29, !noundef !30
  %14 = trunc nuw i8 %13 to i1
  %15 = load i32, ptr %9, align 4
  %16 = load i32, ptr @hf_giop_repoid, align 4
  call fastcc void @dissect_typecode_string_param(ptr noundef %0, ptr noundef %2, ptr noundef %3, i1 noundef zeroext %14, i32 noundef %15, i32 noundef %16, ptr noundef nonnull %11)
  %17 = load ptr, ptr %11, align 8
  tail call void @wmem_list_append(ptr noundef %7, ptr noundef %17)
  %18 = load i32, ptr @hf_giop_typecode_name, align 4
  call fastcc void @dissect_typecode_string_param(ptr noundef %0, ptr noundef %2, ptr noundef %3, i1 noundef zeroext %14, i32 noundef %15, i32 noundef %18, ptr noundef nonnull %11)
  %19 = load ptr, ptr %11, align 8
  tail call void @wmem_list_append(ptr noundef %7, ptr noundef %19)
  %20 = getelementptr inbounds nuw i8, ptr %1, i64 408
  %21 = load ptr, ptr %20, align 8
  %22 = tail call noalias dereferenceable_or_null(4) ptr @wmem_alloc(ptr noundef %21, i64 noundef 4) #18
  %23 = load ptr, ptr %20, align 8
  %24 = tail call noalias ptr @wmem_list_new(ptr noundef %23)
  %25 = tail call fastcc i32 @get_CDR_typeCode_with_params(ptr noundef %0, ptr noundef %1, ptr noundef %2, ptr noundef %3, i1 noundef zeroext %14, i32 noundef %15, ptr noundef %6, ptr noundef %24)
  store i32 %25, ptr %22, align 4
  tail call void @wmem_list_append(ptr noundef %7, ptr noundef %22)
  tail call void @wmem_list_append(ptr noundef %7, ptr noundef %24)
  call void @llvm.lifetime.end.p0(i64 8, ptr nonnull %11) #17
  call void @llvm.lifetime.end.p0(i64 1, ptr nonnull %10) #17
  call void @llvm.lifetime.end.p0(i64 4, ptr nonnull %9) #17
  ret void
}